target datalayout = "e-m:e-p270:32:32-p271:32:32-p272:64:64-i64:64-i128:128-f80:128-n8:16:32:64-S128"
target triple = "x86_64-pc-linux-gnu"

%struct.H5FA_hdr_t = type { %struct.H5C_cache_entry_t, %struct.H5FA_create_t, i64, %struct.H5FA_stat_t, i64, i64, i64, ptr, i64, i8, i64, i64, ptr, i8, ptr, ptr }
%struct.H5C_cache_entry_t = type { ptr, i64, i64, ptr, i8, ptr, i8, i8, i8, i8, i32, i8, i8, i8, i8, i8, i32, ptr, i32, i32, i32, i32, i32, i8, i8, ptr, ptr, ptr, ptr, ptr, ptr, i8, i32, i8, i64, ptr, i64, i64, i32, i8, i32, i32, i8, ptr, ptr, ptr }
%struct.H5FA_create_t = type { ptr, i8, i8, i64 }
%struct.H5FA_stat_t = type { i64, i64, i64 }
%struct.H5FA_class_t = type { i32, ptr, i64, ptr, ptr, ptr, ptr, ptr, ptr, ptr, ptr }

@H5FA_init_g = external global i8, align 1
@H5_libterm_g = external global i8, align 1
@.str = private unnamed_addr constant [101 x i8] c"generated/home/dtcxzyw/WorkSpace/Projects/compilers/llvm-opt-benchmark/bench/hdf5/hdf5/src/H5FAhdr.c\00", align 1
@__func__.H5FA__hdr_alloc = private unnamed_addr constant [16 x i8] c"H5FA__hdr_alloc\00", align 1
@H5E_FARRAY_g = external global i64, align 8
@H5E_CANTALLOC_g = external global i64, align 8
@.str.1 = private unnamed_addr constant [55 x i8] c"memory allocation failed for Fixed Array shared header\00", align 1
@H5E_CANTFREE_g = external global i64, align 8
@.str.2 = private unnamed_addr constant [37 x i8] c"unable to destroy fixed array header\00", align 1
@__func__.H5FA__hdr_dest = private unnamed_addr constant [15 x i8] c"H5FA__hdr_dest\00", align 1
@H5E_CANTRELEASE_g = external global i64, align 8
@.str.19 = private unnamed_addr constant [54 x i8] c"unable to destroy fixed array client callback context\00", align 1
@.str.20 = private unnamed_addr constant [42 x i8] c"unable to destroy fixed array 'top' proxy\00", align 1
@H5_H5FA_hdr_t_reg_free_list = internal global { i8, [3 x i8], i32, i32, [4 x i8], ptr, i64, ptr } { i8 0, [3 x i8] zeroinitializer, i32 0, i32 0, [4 x i8] zeroinitializer, ptr @.str.21, i64 400, ptr null }, align 8

; Function Attrs: nounwind uwtable
define i32 @H5FA__hdr_dest(ptr noundef %0) #0 {
  %2 = alloca ptr, align 8
  %3 = alloca i32, align 4
  %4 = alloca i8, align 1
  store ptr %0, ptr %2, align 8, !tbaa !8
  call void @llvm.lifetime.start.p0(i64 4, ptr %3) #5
  store i32 0, ptr %3, align 4, !tbaa !34
  call void @llvm.lifetime.start.p0(i64 1, ptr %4) #5
  store i8 0, ptr %4, align 1, !tbaa !10
  %5 = load i8, ptr @H5FA_init_g, align 1, !tbaa !10, !range !12, !noundef !13
  %6 = trunc i8 %5 to i1
  br i1 %6, label %11, label %7

7:                                                ; preds = %1
  %8 = load i8, ptr @H5_libterm_g, align 1, !tbaa !10, !range !12, !noundef !13
  %9 = trunc i8 %8 to i1
  %10 = xor i1 %9, true
  br label %11

11:                                               ; preds = %7, %1
  %12 = phi i1 [ true, %1 ], [ %10, %7 ]
  %13 = xor i1 %12, true
  %14 = xor i1 %13, true
  %15 = zext i1 %14 to i32
  %16 = sext i32 %15 to i64
  %17 = call i64 @llvm.expect.i64(i64 %16, i64 1)
  %18 = icmp ne i64 %17, 0
  br i1 %18, label %19, label %95

19:                                               ; preds = %11
  %20 = load ptr, ptr %2, align 8, !tbaa !8
  %21 = getelementptr inbounds nuw %struct.H5FA_hdr_t, ptr %20, i32 0, i32 12
  %22 = load ptr, ptr %21, align 8, !tbaa !35
  %23 = icmp ne ptr %22, null
  br i1 %23, label %24, label %56

24:                                               ; preds = %19
  %25 = load ptr, ptr %2, align 8, !tbaa !8
  %26 = getelementptr inbounds nuw %struct.H5FA_hdr_t, ptr %25, i32 0, i32 1
  %27 = getelementptr inbounds nuw %struct.H5FA_create_t, ptr %26, i32 0, i32 0
  %28 = load ptr, ptr %27, align 8, !tbaa !36
  %29 = getelementptr inbounds nuw %struct.H5FA_class_t, ptr %28, i32 0, i32 4
  %30 = load ptr, ptr %29, align 8, !tbaa !37
  %31 = load ptr, ptr %2, align 8, !tbaa !8
  %32 = getelementptr inbounds nuw %struct.H5FA_hdr_t, ptr %31, i32 0, i32 12
  %33 = load ptr, ptr %32, align 8, !tbaa !35
  %34 = call i32 %30(ptr noundef %33)
  %35 = icmp slt i32 %34, 0
  br i1 %35, label %36, label %55

36:                                               ; preds = %24
  br label %37

37:                                               ; preds = %36
  br label %38

38:                                               ; preds = %37
  br label %39

39:                                               ; preds = %38
  %40 = load i64, ptr @H5E_FARRAY_g, align 8, !tbaa !14
  %41 = load i64, ptr @H5E_CANTRELEASE_g, align 8, !tbaa !14
  %42 = call i32 (ptr, ptr, i32, i64, i64, ptr, ...) @H5E_printf_stack(ptr noundef @.str, ptr noundef @__func__.H5FA__hdr_dest, i32 noundef 552, i64 noundef %40, i64 noundef %41, ptr noundef @.str.19)
  br label %43

43:                                               ; preds = %39
  br label %44

44:                                               ; preds = %43
  store i8 1, ptr %4, align 1, !tbaa !10
  %45 = load i8, ptr %4, align 1, !tbaa !10, !range !12, !noundef !13
  %46 = trunc i8 %45 to i1
  %47 = zext i1 %46 to i8
  store i8 %47, ptr %4, align 1, !tbaa !10
  br label %48

48:                                               ; preds = %44
  br label %49

49:                                               ; preds = %48
  br label %50

50:                                               ; preds = %49
  store i32 -1, ptr %3, align 4, !tbaa !34
  br label %94

51:                                               ; No predecessors!
  br label %52

52:                                               ; preds = %51
  br label %53

53:                                               ; preds = %52
  br label %54

54:                                               ; preds = %53
  br label %55

55:                                               ; preds = %54, %24
  br label %56

56:                                               ; preds = %55, %19
  %57 = load ptr, ptr %2, align 8, !tbaa !8
  %58 = getelementptr inbounds nuw %struct.H5FA_hdr_t, ptr %57, i32 0, i32 12
  store ptr null, ptr %58, align 8, !tbaa !35
  %59 = load ptr, ptr %2, align 8, !tbaa !8
  %60 = getelementptr inbounds nuw %struct.H5FA_hdr_t, ptr %59, i32 0, i32 14
  %61 = load ptr, ptr %60, align 8, !tbaa !40
  %62 = icmp ne ptr %61, null
  br i1 %62, label %63, label %91

63:                                               ; preds = %56
  %64 = load ptr, ptr %2, align 8, !tbaa !8
  %65 = getelementptr inbounds nuw %struct.H5FA_hdr_t, ptr %64, i32 0, i32 14
  %66 = load ptr, ptr %65, align 8, !tbaa !40
  %67 = call i32 @H5AC_proxy_entry_dest(ptr noundef %66)
  %68 = icmp slt i32 %67, 0
  br i1 %68, label %69, label %88

69:                                               ; preds = %63
  br label %70

70:                                               ; preds = %69
  br label %71

71:                                               ; preds = %70
  br label %72

72:                                               ; preds = %71
  %73 = load i64, ptr @H5E_FARRAY_g, align 8, !tbaa !14
  %74 = load i64, ptr @H5E_CANTRELEASE_g, align 8, !tbaa !14
  %75 = call i32 (ptr, ptr, i32, i64, i64, ptr, ...) @H5E_printf_stack(ptr noundef @.str, ptr noundef @__func__.H5FA__hdr_dest, i32 noundef 559, i64 noundef %73, i64 noundef %74, ptr noundef @.str.20)
  br label %76

76:                                               ; preds = %72
  br label %77

77:                                               ; preds = %76
  store i8 1, ptr %4, align 1, !tbaa !10
  %78 = load i8, ptr %4, align 1, !tbaa !10, !range !12, !noundef !13
  %79 = trunc i8 %78 to i1
  %80 = zext i1 %79 to i8
  store i8 %80, ptr %4, align 1, !tbaa !10
  br label %81

81:                                               ; preds = %77
  br label %82

82:                                               ; preds = %81
  br label %83

83:                                               ; preds = %82
  store i32 -1, ptr %3, align 4, !tbaa !34
  br label %94

84:                                               ; No predecessors!
  br label %85

85:                                               ; preds = %84
  br label %86

86:                                               ; preds = %85
  br label %87

87:                                               ; preds = %86
  br label %88

88:                                               ; preds = %87, %63
  %89 = load ptr, ptr %2, align 8, !tbaa !8
  %90 = getelementptr inbounds nuw %struct.H5FA_hdr_t, ptr %89, i32 0, i32 14
  store ptr null, ptr %90, align 8, !tbaa !40
  br label %91

91:                                               ; preds = %88, %56
  %92 = load ptr, ptr %2, align 8, !tbaa !8
  %93 = call ptr @H5FL_reg_free(ptr noundef @H5_H5FA_hdr_t_reg_free_list, ptr noundef %92)
  store ptr %93, ptr %2, align 8, !tbaa !8
  br label %94

94:                                               ; preds = %91, %83, %50
  br label %95

95:                                               ; preds = %94, %11
  %96 = load i32, ptr %3, align 4, !tbaa !34
  call void @llvm.lifetime.end.p0(i64 1, ptr %4) #5
  call void @llvm.lifetime.end.p0(i64 4, ptr %3) #5
  ret i32 %96
}

; Function Attrs: nounwind uwtable
define ptr @H5FA__hdr_alloc(ptr noundef %0) #0 {
  %2 = alloca ptr, align 8
  %3 = alloca ptr, align 8
  %4 = alloca ptr, align 8
  %5 = alloca i8, align 1
  store ptr %0, ptr %2, align 8, !tbaa !3
  call void @llvm.lifetime.start.p0(i64 8, ptr %3) #5
  store ptr null, ptr %3, align 8, !tbaa !8
  call void @llvm.lifetime.start.p0(i64 8, ptr %4) #5
  store ptr null, ptr %4, align 8, !tbaa !8
  call void @llvm.lifetime.start.p0(i64 1, ptr %5) #5
  store i8 0, ptr %5, align 1, !tbaa !10
  %6 = load i8, ptr @H5FA_init_g, align 1, !tbaa !10, !range !12, !noundef !13
  %7 = trunc i8 %6 to i1
  br i1 %7, label %12, label %8

8:                                                ; preds = %1
  %9 = load i8, ptr @H5_libterm_g, align 1, !tbaa !10, !range !12, !noundef !13
  %10 = trunc i8 %9 to i1
  %11 = xor i1 %10, true
  br label %12

12:                                               ; preds = %8, %1
  %13 = phi i1 [ true, %1 ], [ %11, %8 ]
  %14 = xor i1 %13, true
  %15 = xor i1 %14, true
  %16 = zext i1 %15 to i32
  %17 = sext i32 %16 to i64
  %18 = call i64 @llvm.expect.i64(i64 %17, i64 1)
  %19 = icmp ne i64 %18, 0
  br i1 %19, label %20, label %94

20:                                               ; preds = %12
  %21 = call noalias ptr @H5FL_reg_calloc(ptr noundef @H5_H5FA_hdr_t_reg_free_list)
  store ptr %21, ptr %3, align 8, !tbaa !8
  %22 = icmp eq ptr null, %21
  br i1 %22, label %23, label %42

23:                                               ; preds = %20
  br label %24

24:                                               ; preds = %23
  br label %25

25:                                               ; preds = %24
  br label %26

26:                                               ; preds = %25
  %27 = load i64, ptr @H5E_FARRAY_g, align 8, !tbaa !14
  %28 = load i64, ptr @H5E_CANTALLOC_g, align 8, !tbaa !14
  %29 = call i32 (ptr, ptr, i32, i64, i64, ptr, ...) @H5E_printf_stack(ptr noundef @.str, ptr noundef @__func__.H5FA__hdr_alloc, i32 noundef 96, i64 noundef %27, i64 noundef %28, ptr noundef @.str.1)
  br label %30

30:                                               ; preds = %26
  br label %31

31:                                               ; preds = %30
  store i8 1, ptr %5, align 1, !tbaa !10
  %32 = load i8, ptr %5, align 1, !tbaa !10, !range !12, !noundef !13
  %33 = trunc i8 %32 to i1
  %34 = zext i1 %33 to i8
  store i8 %34, ptr %5, align 1, !tbaa !10
  br label %35

35:                                               ; preds = %31
  br label %36

36:                                               ; preds = %35
  br label %37

37:                                               ; preds = %36
  store ptr null, ptr %4, align 8, !tbaa !8
  br label %66

38:                                               ; No predecessors!
  br label %39

39:                                               ; preds = %38
  br label %40

40:                                               ; preds = %39
  br label %41

41:                                               ; preds = %40
  br label %42

42:                                               ; preds = %41, %20
  %43 = load ptr, ptr %3, align 8, !tbaa !8
  %44 = getelementptr inbounds nuw %struct.H5FA_hdr_t, ptr %43, i32 0, i32 5
  store i64 -1, ptr %44, align 8, !tbaa !16
  %45 = load ptr, ptr %2, align 8, !tbaa !3
  %46 = load ptr, ptr %3, align 8, !tbaa !8
  %47 = getelementptr inbounds nuw %struct.H5FA_hdr_t, ptr %46, i32 0, i32 7
  store ptr %45, ptr %47, align 8, !tbaa !30
  %48 = load ptr, ptr %2, align 8, !tbaa !3
  %49 = call i32 @H5F_get_intent(ptr noundef %48)
  %50 = and i32 %49, 32
  %51 = icmp ugt i32 %50, 0
  %52 = load ptr, ptr %3, align 8, !tbaa !8
  %53 = getelementptr inbounds nuw %struct.H5FA_hdr_t, ptr %52, i32 0, i32 13
  %54 = zext i1 %51 to i8
  store i8 %54, ptr %53, align 8, !tbaa !31
  %55 = load ptr, ptr %2, align 8, !tbaa !3
  %56 = call zeroext i8 @H5F_sizeof_addr(ptr noundef %55)
  %57 = zext i8 %56 to i64
  %58 = load ptr, ptr %3, align 8, !tbaa !8
  %59 = getelementptr inbounds nuw %struct.H5FA_hdr_t, ptr %58, i32 0, i32 10
  store i64 %57, ptr %59, align 8, !tbaa !32
  %60 = load ptr, ptr %2, align 8, !tbaa !3
  %61 = call zeroext i8 @H5F_sizeof_size(ptr noundef %60)
  %62 = zext i8 %61 to i64
  %63 = load ptr, ptr %3, align 8, !tbaa !8
  %64 = getelementptr inbounds nuw %struct.H5FA_hdr_t, ptr %63, i32 0, i32 11
  store i64 %62, ptr %64, align 8, !tbaa !33
  %65 = load ptr, ptr %3, align 8, !tbaa !8
  store ptr %65, ptr %4, align 8, !tbaa !8
  br label %66

66:                                               ; preds = %42, %37
  %67 = load ptr, ptr %4, align 8, !tbaa !8
  %68 = icmp ne ptr %67, null
  br i1 %68, label %93, label %69

69:                                               ; preds = %66
  %70 = load ptr, ptr %3, align 8, !tbaa !8
  %71 = icmp ne ptr %70, null
  br i1 %71, label %72, label %92

72:                                               ; preds = %69
  %73 = load ptr, ptr %3, align 8, !tbaa !8
  %74 = call i32 @H5FA__hdr_dest(ptr noundef %73)
  %75 = icmp slt i32 %74, 0
  br i1 %75, label %76, label %92

76:                                               ; preds = %72
  br label %77

77:                                               ; preds = %76
  br label %78

78:                                               ; preds = %77
  br label %79

79:                                               ; preds = %78
  %80 = load i64, ptr @H5E_FARRAY_g, align 8, !tbaa !14
  %81 = load i64, ptr @H5E_CANTFREE_g, align 8, !tbaa !14
  %82 = call i32 (ptr, ptr, i32, i64, i64, ptr, ...) @H5E_printf_stack(ptr noundef @.str, ptr noundef @__func__.H5FA__hdr_alloc, i32 noundef 113, i64 noundef %80, i64 noundef %81, ptr noundef @.str.2)
  br label %83

83:                                               ; preds = %79
  br label %84

84:                                               ; preds = %83
  store i8 1, ptr %5, align 1, !tbaa !10
  %85 = load i8, ptr %5, align 1, !tbaa !10, !range !12, !noundef !13
  %86 = trunc i8 %85 to i1
  %87 = zext i1 %86 to i8
  store i8 %87, ptr %5, align 1, !tbaa !10
  br label %88

88:                                               ; preds = %84
  br label %89

89:                                               ; preds = %88
  store ptr null, ptr %4, align 8, !tbaa !8
  br label %90

90:                                               ; preds = %89
  br label %91

91:                                               ; preds = %90
  br label %92

92:                                               ; preds = %91, %72, %69
  br label %93

93:                                               ; preds = %92, %66
  br label %94

94:                                               ; preds = %93, %12
  %95 = load ptr, ptr %4, align 8, !tbaa !8
  call void @llvm.lifetime.end.p0(i64 1, ptr %5) #5
  call void @llvm.lifetime.end.p0(i64 8, ptr %4) #5
  call void @llvm.lifetime.end.p0(i64 8, ptr %3) #5
  ret ptr %95
}