; Function Attrs: nounwind uwtable
define noalias ptr @H5FA__hdr_alloc(ptr noundef %0) local_unnamed_addr #0 {
  %2 = load i8, ptr @H5FA_init_g, align 1, !tbaa !3, !range !7, !noundef !8
  %3 = trunc nuw i8 %2 to i1
  %4 = load i8, ptr @H5_libterm_g, align 1, !range !7
  %5 = trunc nuw i8 %4 to i1
  %6 = xor i1 %5, true
  %7 = select i1 %3, i1 true, i1 %6
  br i1 %7, label %8, label %29, !prof !9

8:                                                ; preds = %1
  %9 = tail call noalias ptr @H5FL_reg_calloc(ptr noundef nonnull @H5_H5FA_hdr_t_reg_free_list) #5
  %10 = icmp eq ptr %9, null
  br i1 %10, label %11, label %15

11:                                               ; preds = %8
  %12 = load i64, ptr @H5E_FARRAY_g, align 8, !tbaa !10
  %13 = load i64, ptr @H5E_CANTALLOC_g, align 8, !tbaa !10
  %14 = tail call i32 (ptr, ptr, i32, i64, i64, ptr, ...) @H5E_printf_stack(ptr noundef nonnull @.str, ptr noundef nonnull @__func__.H5FA__hdr_alloc, i32 noundef 96, i64 noundef %12, i64 noundef %13, ptr noundef nonnull @.str.1) #5
  br label %29

15:                                               ; preds = %8
  %16 = getelementptr inbounds nuw i8, ptr %9, i64 312
  store i64 -1, ptr %16, align 8, !tbaa !12
  %17 = getelementptr inbounds nuw i8, ptr %9, i64 328
  store ptr %0, ptr %17, align 8, !tbaa !28
  %18 = tail call i32 @H5F_get_intent(ptr noundef %0) #5
  %19 = getelementptr inbounds nuw i8, ptr %9, i64 376
  %20 = trunc i32 %18 to i8
  %21 = lshr i8 %20, 5
  %22 = and i8 %21, 1
  store i8 %22, ptr %19, align 8, !tbaa !29
  %23 = tail call zeroext i8 @H5F_sizeof_addr(ptr noundef %0) #5
  %24 = zext i8 %23 to i64
  %25 = getelementptr inbounds nuw i8, ptr %9, i64 352
  store i64 %24, ptr %25, align 8, !tbaa !30
  %26 = tail call zeroext i8 @H5F_sizeof_size(ptr noundef %0) #5
  %27 = zext i8 %26 to i64
  %28 = getelementptr inbounds nuw i8, ptr %9, i64 360
  store i64 %27, ptr %28, align 8, !tbaa !31
  br label %29

29:                                               ; preds = %11, %15, %1
  %.0 = phi ptr [ null, %1 ], [ %9, %15 ], [ null, %11 ]
  ret ptr %.0
}